target datalayout = "e-m:e-p270:32:32-p271:32:32-p272:64:64-i64:64-i128:128-f80:128-n8:16:32:64-S128"
target triple = "x86_64-pc-linux-gnu"

@.str.17 = private unnamed_addr constant [13 x i8] c"NULL pointer\00", align 1

; Function Attrs: null_pointer_is_valid sspstrong uwtable
define zeroext i1 @uat_fld_chk_str(ptr noundef %0, ptr noundef %1, i32 noundef %2, ptr noundef %3, ptr noundef %4, ptr noundef %5) #0 {
  %7 = alloca i1, align 1
  %8 = alloca ptr, align 8
  %9 = alloca ptr, align 8
  %10 = alloca i32, align 4
  %11 = alloca ptr, align 8
  %12 = alloca ptr, align 8
  %13 = alloca ptr, align 8
  store ptr %0, ptr %8, align 8
  store ptr %1, ptr %9, align 8
  store i32 %2, ptr %10, align 4
  store ptr %3, ptr %11, align 8
  store ptr %4, ptr %12, align 8
  store ptr %5, ptr %13, align 8
  %14 = load ptr, ptr %9, align 8
  %15 = icmp eq ptr %14, null
  br i1 %15, label %16, label %19

16:                                               ; preds = %6
  %17 = call noalias ptr @g_strdup(ptr noundef @.str.17)
  %18 = load ptr, ptr %13, align 8
  store ptr %17, ptr %18, align 8
  store i1 false, ptr %7, align 1
  br label %21

19:                                               ; preds = %6
  %20 = load ptr, ptr %13, align 8
  store ptr null, ptr %20, align 8
  store i1 true, ptr %7, align 1
  br label %21

21:                                               ; preds = %19, %16
  %22 = load i1, ptr %7, align 1
  ret i1 %22
}