; Function Attrs: null_pointer_is_valid sspstrong uwtable
define noundef zeroext i1 @uat_fld_chk_str(ptr noundef readnone captures(none) %0, ptr noundef readnone captures(address_is_null) %1, i32 noundef %2, ptr noundef readnone captures(none) %3, ptr noundef readnone captures(none) %4, ptr noundef writeonly captures(none) initializes((0, 8)) %5) local_unnamed_addr #0 {
  %7 = icmp ne ptr %1, null
  br i1 %7, label %10, label %8

8:                                                ; preds = %6
  %9 = tail call noalias ptr @g_strdup(ptr noundef nonnull @.str.17)
  br label %10

10:                                               ; preds = %6, %8
  %storemerge = phi ptr [ %9, %8 ], [ null, %6 ]
  store ptr %storemerge, ptr %5, align 8
  ret i1 %7
}